; Function Attrs: mustprogress nounwind uwtable
define dso_local void @_ZN4node9inspector8protocol16DispatchResponse5ErrorERKNSt7__cxx1112basic_stringIcSt11char_traitsIcESaIcEEE(ptr noalias sret(%"class.node::inspector::protocol::DispatchResponse") align 8 %agg.result, ptr noundef nonnull align 8 dereferenceable(32) %error) local_unnamed_addr #1 align 2 {
entry:
  %m_errorMessage.i = getelementptr inbounds i8, ptr %agg.result, i64 8
  tail call void @_ZNSt7__cxx1112basic_stringIcSt11char_traitsIcESaIcEEC1Ev(ptr noundef nonnull align 8 dereferenceable(32) %m_errorMessage.i) #27
  store i32 1, ptr %agg.result, align 8
  %m_errorCode = getelementptr inbounds i8, ptr %agg.result, i64 40
  store i32 -32000, ptr %m_errorCode, align 8
  %call = tail call noundef nonnull align 8 dereferenceable(32) ptr @_ZNSt7__cxx1112basic_stringIcSt11char_traitsIcESaIcEEaSERKS4_(ptr noundef nonnull align 8 dereferenceable(32) %m_errorMessage.i, ptr noundef nonnull align 8 dereferenceable(32) %error) #27
  ret void
}